target datalayout = "e-m:e-p270:32:32-p271:32:32-p272:64:64-i64:64-i128:128-f80:128-n8:16:32:64-S128"
target triple = "x86_64-pc-linux-gnu"

%struct.expert_field = type { i32, i32 }

@ei_reload_truncated_field = internal global %struct.expert_field zeroinitializer, align 4
@.str.17 = private unnamed_addr constant [14 x i8] c": %d elements\00", align 1
@hf_reload_length_uint8 = internal global i32 0, align 4
@hf_reload_probe_information = internal global i32 0, align 4
@hf_reload_probe_information_data = internal global i32 0, align 4
@hf_reload_probe_information_type = internal global i32 0, align 4
@hf_reload_responsible_set = internal global i32 0, align 4
@hf_reload_num_resources = internal global i32 0, align 4
@hf_reload_uptime = internal global i32 0, align 4
@hf_reload_probeans = internal global i32 0, align 4
@hf_reload_probeans_probe_info = internal global i32 0, align 4
@ett_reload_probe_information = internal global i32 0, align 4
@ett_reload_probe_information_data = internal global i32 0, align 4
@ett_reload_probeans = internal global i32 0, align 4
@ett_reload_probeans_probe_info = internal global i32 0, align 4
@.str.653 = private unnamed_addr constant [19 x i8] c"Truncated ProbeAns\00", align 1
@.str.654 = private unnamed_addr constant [24 x i8] c" (ProbeInformation<%d>)\00", align 1
@.str.655 = private unnamed_addr constant [28 x i8] c"Truncated probe information\00", align 1
@.str.656 = private unnamed_addr constant [26 x i8] c"Truncated responsible set\00", align 1
@.str.657 = private unnamed_addr constant [28 x i8] c"Truncated num resource info\00", align 1
@.str.658 = private unnamed_addr constant [22 x i8] c"Truncated uptime info\00", align 1

; Function Attrs: null_pointer_is_valid sspstrong uwtable
define internal i32 @dissect_probe_information(ptr noundef %0, ptr noundef %1, ptr noundef %2, i16 noundef zeroext %3, i16 noundef zeroext %4) #0 {
  %6 = alloca i32, align 4
  %7 = alloca ptr, align 8
  %8 = alloca ptr, align 8
  %9 = alloca ptr, align 8
  %10 = alloca i16, align 2
  %11 = alloca i16, align 2
  %12 = alloca ptr, align 8
  %13 = alloca ptr, align 8
  %14 = alloca i8, align 1
  %15 = alloca i8, align 1
  %16 = alloca i32, align 4
  %17 = alloca ptr, align 8
  %18 = alloca ptr, align 8
  store ptr %0, ptr %7, align 8
  store ptr %1, ptr %8, align 8
  store ptr %2, ptr %9, align 8
  store i16 %3, ptr %10, align 2
  store i16 %4, ptr %11, align 2
  call void @llvm.lifetime.start.p0(i64 8, ptr %12) #8
  call void @llvm.lifetime.start.p0(i64 8, ptr %13) #8
  call void @llvm.lifetime.start.p0(i64 1, ptr %14) #8
  call void @llvm.lifetime.start.p0(i64 1, ptr %15) #8
  %19 = load ptr, ptr %7, align 8
  %20 = load i16, ptr %10, align 2
  %21 = zext i16 %20 to i32
  %22 = call zeroext i8 @tvb_get_uint8(ptr noundef %19, i32 noundef %21)
  store i8 %22, ptr %14, align 1
  %23 = load ptr, ptr %7, align 8
  %24 = load i16, ptr %10, align 2
  %25 = zext i16 %24 to i32
  %26 = add i32 %25, 1
  %27 = call zeroext i8 @tvb_get_uint8(ptr noundef %23, i32 noundef %26)
  store i8 %27, ptr %15, align 1
  %28 = load i8, ptr %15, align 1
  %29 = zext i8 %28 to i32
  %30 = add i32 %29, 2
  %31 = load i16, ptr %11, align 2
  %32 = zext i16 %31 to i32
  %33 = icmp sgt i32 %30, %32
  br i1 %33, label %34, label %48

34:                                               ; preds = %5
  %35 = load ptr, ptr %9, align 8
  %36 = load i32, ptr @hf_reload_probe_information, align 4
  %37 = load ptr, ptr %7, align 8
  %38 = load i16, ptr %10, align 2
  %39 = zext i16 %38 to i32
  %40 = load i16, ptr %11, align 2
  %41 = zext i16 %40 to i32
  %42 = call ptr @proto_tree_add_item(ptr noundef %35, i32 noundef %36, ptr noundef %37, i32 noundef %39, i32 noundef %41, i32 noundef 0)
  store ptr %42, ptr %12, align 8
  %43 = load ptr, ptr %8, align 8
  %44 = load ptr, ptr %12, align 8
  %45 = call ptr (ptr, ptr, ptr, ptr, ...) @expert_add_info_format(ptr noundef %43, ptr noundef %44, ptr noundef @ei_reload_truncated_field, ptr noundef @.str.655)
  %46 = load i16, ptr %11, align 2
  %47 = zext i16 %46 to i32
  store i32 %47, ptr %6, align 4
  store i32 1, ptr %16, align 4
  br label %155

48:                                               ; preds = %5
  %49 = load ptr, ptr %9, align 8
  %50 = load i32, ptr @hf_reload_probe_information, align 4
  %51 = load ptr, ptr %7, align 8
  %52 = load i16, ptr %10, align 2
  %53 = zext i16 %52 to i32
  %54 = load i8, ptr %15, align 1
  %55 = zext i8 %54 to i32
  %56 = add i32 2, %55
  %57 = call ptr @proto_tree_add_item(ptr noundef %49, i32 noundef %50, ptr noundef %51, i32 noundef %53, i32 noundef %56, i32 noundef 0)
  store ptr %57, ptr %12, align 8
  %58 = load ptr, ptr %12, align 8
  %59 = load i32, ptr @ett_reload_probe_information, align 4
  %60 = call ptr @proto_item_add_subtree(ptr noundef %58, i32 noundef %59)
  store ptr %60, ptr %13, align 8
  %61 = load ptr, ptr %13, align 8
  %62 = load i32, ptr @hf_reload_probe_information_type, align 4
  %63 = load ptr, ptr %7, align 8
  %64 = load i16, ptr %10, align 2
  %65 = zext i16 %64 to i32
  %66 = call ptr @proto_tree_add_item(ptr noundef %61, i32 noundef %62, ptr noundef %63, i32 noundef %65, i32 noundef 1, i32 noundef 0)
  %67 = load ptr, ptr %13, align 8
  %68 = load i32, ptr @hf_reload_length_uint8, align 4
  %69 = load ptr, ptr %7, align 8
  %70 = load i16, ptr %10, align 2
  %71 = zext i16 %70 to i32
  %72 = add i32 %71, 1
  %73 = load i8, ptr %15, align 1
  %74 = zext i8 %73 to i32
  %75 = call ptr @proto_tree_add_uint(ptr noundef %67, i32 noundef %68, ptr noundef %69, i32 noundef %72, i32 noundef 1, i32 noundef %74)
  call void @llvm.lifetime.start.p0(i64 8, ptr %17) #8
  call void @llvm.lifetime.start.p0(i64 8, ptr %18) #8
  %76 = load ptr, ptr %13, align 8
  %77 = load i32, ptr @hf_reload_probe_information_data, align 4
  %78 = load ptr, ptr %7, align 8
  %79 = load i16, ptr %10, align 2
  %80 = zext i16 %79 to i32
  %81 = add i32 %80, 2
  %82 = load i8, ptr %15, align 1
  %83 = zext i8 %82 to i32
  %84 = call ptr @proto_tree_add_item(ptr noundef %76, i32 noundef %77, ptr noundef %78, i32 noundef %81, i32 noundef %83, i32 noundef 0)
  store ptr %84, ptr %17, align 8
  %85 = load ptr, ptr %17, align 8
  %86 = load i32, ptr @ett_reload_probe_information_data, align 4
  %87 = call ptr @proto_item_add_subtree(ptr noundef %85, i32 noundef %86)
  store ptr %87, ptr %18, align 8
  %88 = load i8, ptr %14, align 1
  %89 = zext i8 %88 to i32
  switch i32 %89, label %147 [
    i32 1, label %90
    i32 2, label %109
    i32 3, label %128
  ]

90:                                               ; preds = %48
  %91 = load i8, ptr %15, align 1
  %92 = zext i8 %91 to i32
  %93 = icmp slt i32 %92, 4
  br i1 %93, label %94, label %101

94:                                               ; preds = %90
  %95 = load ptr, ptr %8, align 8
  %96 = load ptr, ptr %17, align 8
  %97 = call ptr (ptr, ptr, ptr, ptr, ...) @expert_add_info_format(ptr noundef %95, ptr noundef %96, ptr noundef @ei_reload_truncated_field, ptr noundef @.str.656)
  %98 = load i8, ptr %15, align 1
  %99 = zext i8 %98 to i32
  %100 = add i32 2, %99
  store i32 %100, ptr %6, align 4
  store i32 1, ptr %16, align 4
  br label %149

101:                                              ; preds = %90
  %102 = load ptr, ptr %18, align 8
  %103 = load i32, ptr @hf_reload_responsible_set, align 4
  %104 = load ptr, ptr %7, align 8
  %105 = load i16, ptr %10, align 2
  %106 = zext i16 %105 to i32
  %107 = add i32 %106, 2
  %108 = call ptr @proto_tree_add_item(ptr noundef %102, i32 noundef %103, ptr noundef %104, i32 noundef %107, i32 noundef 4, i32 noundef 0)
  br label %148

109:                                              ; preds = %48
  %110 = load i8, ptr %15, align 1
  %111 = zext i8 %110 to i32
  %112 = icmp slt i32 %111, 4
  br i1 %112, label %113, label %120

113:                                              ; preds = %109
  %114 = load ptr, ptr %8, align 8
  %115 = load ptr, ptr %17, align 8
  %116 = call ptr (ptr, ptr, ptr, ptr, ...) @expert_add_info_format(ptr noundef %114, ptr noundef %115, ptr noundef @ei_reload_truncated_field, ptr noundef @.str.657)
  %117 = load i8, ptr %15, align 1
  %118 = zext i8 %117 to i32
  %119 = add i32 2, %118
  store i32 %119, ptr %6, align 4
  store i32 1, ptr %16, align 4
  br label %149

120:                                              ; preds = %109
  %121 = load ptr, ptr %18, align 8
  %122 = load i32, ptr @hf_reload_num_resources, align 4
  %123 = load ptr, ptr %7, align 8
  %124 = load i16, ptr %10, align 2
  %125 = zext i16 %124 to i32
  %126 = add i32 %125, 2
  %127 = call ptr @proto_tree_add_item(ptr noundef %121, i32 noundef %122, ptr noundef %123, i32 noundef %126, i32 noundef 4, i32 noundef 0)
  br label %148

128:                                              ; preds = %48
  %129 = load i8, ptr %15, align 1
  %130 = zext i8 %129 to i32
  %131 = icmp slt i32 %130, 4
  br i1 %131, label %132, label %139

132:                                              ; preds = %128
  %133 = load ptr, ptr %8, align 8
  %134 = load ptr, ptr %17, align 8
  %135 = call ptr (ptr, ptr, ptr, ptr, ...) @expert_add_info_format(ptr noundef %133, ptr noundef %134, ptr noundef @ei_reload_truncated_field, ptr noundef @.str.658)
  %136 = load i8, ptr %15, align 1
  %137 = zext i8 %136 to i32
  %138 = add i32 2, %137
  store i32 %138, ptr %6, align 4
  store i32 1, ptr %16, align 4
  br label %149

139:                                              ; preds = %128
  %140 = load ptr, ptr %18, align 8
  %141 = load i32, ptr @hf_reload_uptime, align 4
  %142 = load ptr, ptr %7, align 8
  %143 = load i16, ptr %10, align 2
  %144 = zext i16 %143 to i32
  %145 = add i32 %144, 2
  %146 = call ptr @proto_tree_add_item(ptr noundef %140, i32 noundef %141, ptr noundef %142, i32 noundef %145, i32 noundef 4, i32 noundef 0)
  br label %148

147:                                              ; preds = %48
  br label %148

148:                                              ; preds = %147, %139, %120, %101
  store i32 0, ptr %16, align 4
  br label %149

149:                                              ; preds = %148, %132, %113, %94
  call void @llvm.lifetime.end.p0(i64 8, ptr %18) #8
  call void @llvm.lifetime.end.p0(i64 8, ptr %17) #8
  %150 = load i32, ptr %16, align 4
  switch i32 %150, label %155 [
    i32 0, label %151
  ]

151:                                              ; preds = %149
  %152 = load i8, ptr %15, align 1
  %153 = zext i8 %152 to i32
  %154 = add i32 %153, 2
  store i32 %154, ptr %6, align 4
  store i32 1, ptr %16, align 4
  br label %155

155:                                              ; preds = %151, %149, %34
  call void @llvm.lifetime.end.p0(i64 1, ptr %15) #8
  call void @llvm.lifetime.end.p0(i64 1, ptr %14) #8
  call void @llvm.lifetime.end.p0(i64 8, ptr %13) #8
  call void @llvm.lifetime.end.p0(i64 8, ptr %12) #8
  %156 = load i32, ptr %6, align 4
  ret i32 %156
}

; Function Attrs: null_pointer_is_valid sspstrong uwtable
define internal i32 @dissect_probeans(ptr noundef %0, ptr noundef %1, ptr noundef %2, i16 noundef zeroext %3, i16 noundef zeroext %4) #0 {
  %6 = alloca ptr, align 8
  %7 = alloca ptr, align 8
  %8 = alloca ptr, align 8
  %9 = alloca i16, align 2
  %10 = alloca i16, align 2
  %11 = alloca ptr, align 8
  %12 = alloca ptr, align 8
  %13 = alloca ptr, align 8
  %14 = alloca ptr, align 8
  %15 = alloca i16, align 2
  %16 = alloca i32, align 4
  %17 = alloca i32, align 4
  %18 = alloca i32, align 4
  store ptr %0, ptr %6, align 8
  store ptr %1, ptr %7, align 8
  store ptr %2, ptr %8, align 8
  store i16 %3, ptr %9, align 2
  store i16 %4, ptr %10, align 2
  call void @llvm.lifetime.start.p0(i64 8, ptr %11) #8
  call void @llvm.lifetime.start.p0(i64 8, ptr %12) #8
  call void @llvm.lifetime.start.p0(i64 8, ptr %13) #8
  call void @llvm.lifetime.start.p0(i64 8, ptr %14) #8
  call void @llvm.lifetime.start.p0(i64 2, ptr %15) #8
  store i16 0, ptr %15, align 2
  %19 = load ptr, ptr %8, align 8
  %20 = load i32, ptr @hf_reload_probeans, align 4
  %21 = load ptr, ptr %6, align 8
  %22 = load i16, ptr %9, align 2
  %23 = zext i16 %22 to i32
  %24 = load i16, ptr %10, align 2
  %25 = zext i16 %24 to i32
  %26 = call ptr @proto_tree_add_item(ptr noundef %19, i32 noundef %20, ptr noundef %21, i32 noundef %23, i32 noundef %25, i32 noundef 0)
  store ptr %26, ptr %11, align 8
  %27 = load ptr, ptr %11, align 8
  %28 = load i32, ptr @ett_reload_probeans, align 4
  %29 = call ptr @proto_item_add_subtree(ptr noundef %27, i32 noundef %28)
  store ptr %29, ptr %13, align 8
  %30 = load ptr, ptr %6, align 8
  %31 = load i16, ptr %9, align 2
  %32 = zext i16 %31 to i32
  %33 = call zeroext i16 @tvb_get_ntohs(ptr noundef %30, i32 noundef %32)
  store i16 %33, ptr %15, align 2
  %34 = load i16, ptr %15, align 2
  %35 = zext i16 %34 to i32
  %36 = add i32 %35, 2
  %37 = load i16, ptr %10, align 2
  %38 = zext i16 %37 to i32
  %39 = icmp sgt i32 %36, %38
  br i1 %39, label %40, label %48

40:                                               ; preds = %5
  %41 = load ptr, ptr %7, align 8
  %42 = load ptr, ptr %11, align 8
  %43 = call ptr (ptr, ptr, ptr, ptr, ...) @expert_add_info_format(ptr noundef %41, ptr noundef %42, ptr noundef @ei_reload_truncated_field, ptr noundef @.str.653)
  %44 = load i16, ptr %10, align 2
  %45 = zext i16 %44 to i32
  %46 = sub i32 %45, 2
  %47 = trunc i32 %46 to i16
  store i16 %47, ptr %15, align 2
  br label %48

48:                                               ; preds = %40, %5
  %49 = load ptr, ptr %13, align 8
  %50 = load i32, ptr @hf_reload_probeans_probe_info, align 4
  %51 = load ptr, ptr %6, align 8
  %52 = load i16, ptr %9, align 2
  %53 = zext i16 %52 to i32
  %54 = load i16, ptr %15, align 2
  %55 = zext i16 %54 to i32
  %56 = call ptr @proto_tree_add_item(ptr noundef %49, i32 noundef %50, ptr noundef %51, i32 noundef %53, i32 noundef %55, i32 noundef 0)
  store ptr %56, ptr %12, align 8
  %57 = load ptr, ptr %12, align 8
  %58 = load i16, ptr %15, align 2
  %59 = zext i16 %58 to i32
  call void (ptr, ptr, ...) @proto_item_append_text(ptr noundef %57, ptr noundef @.str.654, i32 noundef %59)
  %60 = load ptr, ptr %12, align 8
  %61 = load i32, ptr @ett_reload_probeans_probe_info, align 4
  %62 = call ptr @proto_item_add_subtree(ptr noundef %60, i32 noundef %61)
  store ptr %62, ptr %14, align 8
  call void @llvm.lifetime.start.p0(i64 4, ptr %16) #8
  store i32 0, ptr %16, align 4
  call void @llvm.lifetime.start.p0(i64 4, ptr %17) #8
  call void @llvm.lifetime.start.p0(i64 4, ptr %18) #8
  store i32 0, ptr %18, align 4
  br label %63

63:                                               ; preds = %92, %48
  %64 = load i32, ptr %16, align 4
  %65 = icmp sge i32 %64, 0
  br i1 %65, label %66, label %71

66:                                               ; preds = %63
  %67 = load i32, ptr %16, align 4
  %68 = load i16, ptr %15, align 2
  %69 = zext i16 %68 to i32
  %70 = icmp slt i32 %67, %69
  br label %71

71:                                               ; preds = %66, %63
  %72 = phi i1 [ false, %63 ], [ %70, %66 ]
  br i1 %72, label %73, label %98

73:                                               ; preds = %71
  %74 = load ptr, ptr %6, align 8
  %75 = load ptr, ptr %7, align 8
  %76 = load ptr, ptr %14, align 8
  %77 = load i16, ptr %9, align 2
  %78 = zext i16 %77 to i32
  %79 = add i32 %78, 2
  %80 = load i32, ptr %16, align 4
  %81 = add i32 %79, %80
  %82 = trunc i32 %81 to i16
  %83 = load i16, ptr %15, align 2
  %84 = zext i16 %83 to i32
  %85 = load i32, ptr %16, align 4
  %86 = sub i32 %84, %85
  %87 = trunc i32 %86 to i16
  %88 = call i32 @dissect_probe_information(ptr noundef %74, ptr noundef %75, ptr noundef %76, i16 noundef zeroext %82, i16 noundef zeroext %87)
  store i32 %88, ptr %17, align 4
  %89 = load i32, ptr %17, align 4
  %90 = icmp sle i32 %89, 0
  br i1 %90, label %91, label %92

91:                                               ; preds = %73
  br label %98

92:                                               ; preds = %73
  %93 = load i32, ptr %17, align 4
  %94 = load i32, ptr %16, align 4
  %95 = add i32 %94, %93
  store i32 %95, ptr %16, align 4
  %96 = load i32, ptr %18, align 4
  %97 = add i32 %96, 1
  store i32 %97, ptr %18, align 4
  br label %63, !llvm.loop !10

98:                                               ; preds = %91, %71
  %99 = load ptr, ptr %12, align 8
  %100 = load i32, ptr %18, align 4
  call void (ptr, ptr, ...) @proto_item_append_text(ptr noundef %99, ptr noundef @.str.17, i32 noundef %100)
  call void @llvm.lifetime.end.p0(i64 4, ptr %18) #8
  call void @llvm.lifetime.end.p0(i64 4, ptr %17) #8
  call void @llvm.lifetime.end.p0(i64 4, ptr %16) #8
  %101 = load i16, ptr %10, align 2
  %102 = zext i16 %101 to i32
  call void @llvm.lifetime.end.p0(i64 2, ptr %15) #8
  call void @llvm.lifetime.end.p0(i64 8, ptr %14) #8
  call void @llvm.lifetime.end.p0(i64 8, ptr %13) #8
  call void @llvm.lifetime.end.p0(i64 8, ptr %12) #8
  call void @llvm.lifetime.end.p0(i64 8, ptr %11) #8
  ret i32 %102
}