; Function Attrs: null_pointer_is_valid sspstrong uwtable
define internal fastcc void @dissect_probeans(ptr noundef %0, ptr noundef %1, ptr noundef %2, i16 noundef zeroext %3, i16 noundef zeroext %4) unnamed_addr #0 {
  %6 = load i32, ptr @hf_reload_probeans, align 4
  %7 = zext i16 %3 to i32
  %8 = zext i16 %4 to i32
  %9 = tail call ptr @proto_tree_add_item(ptr noundef %2, i32 noundef %6, ptr noundef %0, i32 noundef %7, i32 noundef %8, i32 noundef 0)
  %10 = load i32, ptr @ett_reload_probeans, align 4
  %11 = tail call ptr @proto_item_add_subtree(ptr noundef %9, i32 noundef %10)
  %12 = tail call zeroext i16 @tvb_get_ntohs(ptr noundef %0, i32 noundef %7)
  %13 = zext i16 %12 to i32
  %14 = add nuw nsw i32 %13, 2
  %15 = icmp samesign ugt i32 %14, %8
  br i1 %15, label %16, label %19

16:                                               ; preds = %5
  %17 = tail call ptr (ptr, ptr, ptr, ptr, ...) @expert_add_info_format(ptr noundef %1, ptr noundef %9, ptr noundef nonnull @ei_reload_truncated_field, ptr noundef nonnull @.str.653)
  %18 = add i16 %4, -2
  %.pre = zext i16 %18 to i32
  br label %19

19:                                               ; preds = %16, %5
  %.pre-phi = phi i32 [ %.pre, %16 ], [ %13, %5 ]
  %.035 = phi i16 [ %18, %16 ], [ %12, %5 ]
  %20 = load i32, ptr @hf_reload_probeans_probe_info, align 4
  %21 = tail call ptr @proto_tree_add_item(ptr noundef %11, i32 noundef %20, ptr noundef %0, i32 noundef %7, i32 noundef %.pre-phi, i32 noundef 0)
  tail call void (ptr, ptr, ...) @proto_item_append_text(ptr noundef %21, ptr noundef nonnull @.str.654, i32 noundef %.pre-phi)
  %22 = load i32, ptr @ett_reload_probeans_probe_info, align 4
  %23 = tail call ptr @proto_item_add_subtree(ptr noundef %21, i32 noundef %22)
  %.not = icmp eq i16 %.035, 0
  br i1 %.not, label %dissect_probe_information.exit._crit_edge, label %.lr.ph

.lr.ph:                                           ; preds = %19
  %24 = add nuw nsw i32 %7, 2
  br label %25

25:                                               ; preds = %.lr.ph, %dissect_probe_information.exit.thread
  %.043 = phi i32 [ 0, %.lr.ph ], [ %76, %dissect_probe_information.exit.thread ]
  %.03642 = phi i32 [ 0, %.lr.ph ], [ %75, %dissect_probe_information.exit.thread ]
  %26 = add nuw nsw i32 %24, %.03642
  %27 = trunc i32 %.03642 to i16
  %28 = sub i16 %.035, %27
  %29 = and i32 %26, 65535
  %30 = tail call zeroext i8 @tvb_get_uint8(ptr noundef %0, i32 noundef %29)
  %31 = add nuw nsw i32 %29, 1
  %32 = tail call zeroext i8 @tvb_get_uint8(ptr noundef %0, i32 noundef %31)
  %33 = zext i8 %32 to i32
  %34 = add nuw nsw i32 %33, 2
  %35 = zext i16 %28 to i32
  %36 = icmp samesign ugt i32 %34, %35
  %37 = load i32, ptr @hf_reload_probe_information, align 4
  br i1 %36, label %dissect_probe_information.exit, label %38

38:                                               ; preds = %25
  %39 = tail call ptr @proto_tree_add_item(ptr noundef %23, i32 noundef %37, ptr noundef %0, i32 noundef %29, i32 noundef %34, i32 noundef 0)
  %40 = load i32, ptr @ett_reload_probe_information, align 4
  %41 = tail call ptr @proto_item_add_subtree(ptr noundef %39, i32 noundef %40)
  %42 = load i32, ptr @hf_reload_probe_information_type, align 4
  %43 = tail call ptr @proto_tree_add_item(ptr noundef %41, i32 noundef %42, ptr noundef %0, i32 noundef %29, i32 noundef 1, i32 noundef 0)
  %44 = load i32, ptr @hf_reload_length_uint8, align 4
  %45 = tail call ptr @proto_tree_add_uint(ptr noundef %41, i32 noundef %44, ptr noundef %0, i32 noundef %31, i32 noundef 1, i32 noundef %33)
  %46 = load i32, ptr @hf_reload_probe_information_data, align 4
  %47 = add nuw nsw i32 %29, 2
  %48 = tail call ptr @proto_tree_add_item(ptr noundef %41, i32 noundef %46, ptr noundef %0, i32 noundef %47, i32 noundef %33, i32 noundef 0)
  %49 = load i32, ptr @ett_reload_probe_information_data, align 4
  %50 = tail call ptr @proto_item_add_subtree(ptr noundef %48, i32 noundef %49)
  switch i8 %30, label %dissect_probe_information.exit.thread [
    i8 1, label %51
    i8 2, label %58
    i8 3, label %65
  ]

51:                                               ; preds = %38
  %52 = icmp ult i8 %32, 4
  br i1 %52, label %53, label %55

53:                                               ; preds = %51
  %54 = tail call ptr (ptr, ptr, ptr, ptr, ...) @expert_add_info_format(ptr noundef %1, ptr noundef %48, ptr noundef nonnull @ei_reload_truncated_field, ptr noundef nonnull @.str.656)
  br label %dissect_probe_information.exit.thread

55:                                               ; preds = %51
  %56 = load i32, ptr @hf_reload_responsible_set, align 4
  %57 = tail call ptr @proto_tree_add_item(ptr noundef %50, i32 noundef %56, ptr noundef %0, i32 noundef %47, i32 noundef 4, i32 noundef 0)
  br label %dissect_probe_information.exit.thread

58:                                               ; preds = %38
  %59 = icmp ult i8 %32, 4
  br i1 %59, label %60, label %62

60:                                               ; preds = %58
  %61 = tail call ptr (ptr, ptr, ptr, ptr, ...) @expert_add_info_format(ptr noundef %1, ptr noundef %48, ptr noundef nonnull @ei_reload_truncated_field, ptr noundef nonnull @.str.657)
  br label %dissect_probe_information.exit.thread

62:                                               ; preds = %58
  %63 = load i32, ptr @hf_reload_num_resources, align 4
  %64 = tail call ptr @proto_tree_add_item(ptr noundef %50, i32 noundef %63, ptr noundef %0, i32 noundef %47, i32 noundef 4, i32 noundef 0)
  br label %dissect_probe_information.exit.thread

65:                                               ; preds = %38
  %66 = icmp ult i8 %32, 4
  br i1 %66, label %67, label %69

67:                                               ; preds = %65
  %68 = tail call ptr (ptr, ptr, ptr, ptr, ...) @expert_add_info_format(ptr noundef %1, ptr noundef %48, ptr noundef nonnull @ei_reload_truncated_field, ptr noundef nonnull @.str.658)
  br label %dissect_probe_information.exit.thread

69:                                               ; preds = %65
  %70 = load i32, ptr @hf_reload_uptime, align 4
  %71 = tail call ptr @proto_tree_add_item(ptr noundef %50, i32 noundef %70, ptr noundef %0, i32 noundef %47, i32 noundef 4, i32 noundef 0)
  br label %dissect_probe_information.exit.thread

dissect_probe_information.exit:                   ; preds = %25
  %72 = tail call ptr @proto_tree_add_item(ptr noundef %23, i32 noundef %37, ptr noundef %0, i32 noundef %29, i32 noundef %35, i32 noundef 0)
  %73 = tail call ptr (ptr, ptr, ptr, ptr, ...) @expert_add_info_format(ptr noundef %1, ptr noundef %72, ptr noundef nonnull @ei_reload_truncated_field, ptr noundef nonnull @.str.655)
  %74 = icmp eq i16 %.035, %27
  br i1 %74, label %dissect_probe_information.exit._crit_edge, label %dissect_probe_information.exit.thread

dissect_probe_information.exit.thread:            ; preds = %67, %60, %53, %55, %62, %69, %38, %dissect_probe_information.exit
  %.0.i41 = phi i32 [ %35, %dissect_probe_information.exit ], [ %34, %38 ], [ %34, %69 ], [ %34, %62 ], [ %34, %55 ], [ %34, %53 ], [ %34, %60 ], [ %34, %67 ]
  %75 = add nuw i32 %.0.i41, %.03642
  %76 = add i32 %.043, 1
  %77 = icmp ult i32 %75, %.pre-phi
  br i1 %77, label %25, label %dissect_probe_information.exit._crit_edge, !llvm.loop !8

dissect_probe_information.exit._crit_edge:        ; preds = %dissect_probe_information.exit.thread, %dissect_probe_information.exit, %19
  %.0.lcssa = phi i32 [ 0, %19 ], [ %.043, %dissect_probe_information.exit ], [ %76, %dissect_probe_information.exit.thread ]
  tail call void (ptr, ptr, ...) @proto_item_append_text(ptr noundef %21, ptr noundef nonnull @.str.17, i32 noundef %.0.lcssa)
  ret void
}